; Function Attrs: mustprogress uwtable
define hidden void @_ZN4cvc58internal6theory4sets13SetEnumeratorC2ERKS3_(ptr noundef nonnull align 8 dereferenceable(80) %0, ptr noundef nonnull readonly align 8 captures(none) dereferenceable(80) %1) unnamed_addr #3 align 2 personality ptr @__gxx_personality_v0 {
  %3 = alloca %"class.cvc5::internal::TypeNode", align 8
  tail call void @llvm.experimental.noalias.scope.decl(metadata !45)
  %4 = getelementptr inbounds nuw i8, ptr %1, i64 8
  %5 = load ptr, ptr %4, align 8, !tbaa !3, !noalias !45
  store ptr %5, ptr %3, align 8, !tbaa !3, !alias.scope !45
  %6 = load i64, ptr %5, align 8, !noalias !45
  %7 = lshr i64 %6, 40
  %8 = trunc nuw nsw i64 %7 to i32
  %9 = and i32 %8, 1048575
  %10 = icmp samesign ult i32 %9, 1048574
  br i1 %10, label %11, label %16, !prof !9

11:                                               ; preds = %2
  %12 = add i64 %6, 1099511627776
  %13 = and i64 %12, 1152920405095219200
  %14 = and i64 %6, -1152920405095219201
  %15 = or disjoint i64 %13, %14
  store i64 %15, ptr %5, align 8, !noalias !45
  br label %_ZNK4cvc58internal6theory23TypeEnumeratorInterface7getTypeEv.exit

16:                                               ; preds = %2
  %17 = icmp eq i32 %9, 1048574
  br i1 %17, label %18, label %_ZNK4cvc58internal6theory23TypeEnumeratorInterface7getTypeEv.exit, !prof !10

18:                                               ; preds = %16
  %19 = or i64 %6, 1152920405095219200
  store i64 %19, ptr %5, align 8, !noalias !45
  tail call void @_ZN4cvc58internal4expr9NodeValue20markRefCountMaxedOutEv(ptr noundef nonnull align 8 dereferenceable(24) %5), !noalias !45
  br label %_ZNK4cvc58internal6theory23TypeEnumeratorInterface7getTypeEv.exit

_ZNK4cvc58internal6theory23TypeEnumeratorInterface7getTypeEv.exit: ; preds = %11, %16, %18
  invoke void @_ZN4cvc58internal6theory18TypeEnumeratorBaseINS1_4sets13SetEnumeratorEEC2ENS0_8TypeNodeE(ptr noundef nonnull align 8 dereferenceable(16) %0, ptr noundef nonnull %3)
          to label %20 unwind label %69

20:                                               ; preds = %_ZNK4cvc58internal6theory23TypeEnumeratorInterface7getTypeEv.exit
  %21 = load ptr, ptr %3, align 8, !tbaa !3
  %22 = load i64, ptr %21, align 8
  %23 = and i64 %22, 1152920405095219200
  %.not.i.i = icmp eq i64 %23, 1152920405095219200
  br i1 %.not.i.i, label %_ZN4cvc58internal8TypeNodeD2Ev.exit, label %24, !prof !10

24:                                               ; preds = %20
  %25 = add i64 %22, 1152920405095219200
  %26 = and i64 %25, 1152920405095219200
  %27 = and i64 %22, -1152920405095219201
  %28 = or disjoint i64 %26, %27
  store i64 %28, ptr %21, align 8
  %29 = icmp eq i64 %26, 0
  br i1 %29, label %30, label %_ZN4cvc58internal8TypeNodeD2Ev.exit, !prof !10

30:                                               ; preds = %24
  invoke void @_ZN4cvc58internal4expr9NodeValue15markForDeletionEv(ptr noundef nonnull align 8 dereferenceable(24) %21)
          to label %_ZN4cvc58internal8TypeNodeD2Ev.exit unwind label %31

31:                                               ; preds = %30
  %32 = landingpad { ptr, i32 }
          catch ptr null
  %33 = extractvalue { ptr, i32 } %32, 0
  call void @__clang_call_terminate(ptr %33) #23
  unreachable

_ZN4cvc58internal8TypeNodeD2Ev.exit:              ; preds = %20, %24, %30
  store ptr getelementptr inbounds nuw inrange(-16, 48) (i8, ptr @_ZTVN4cvc58internal6theory4sets13SetEnumeratorE, i64 16), ptr %0, align 8, !tbaa !11
  %34 = getelementptr inbounds nuw i8, ptr %0, i64 16
  %35 = getelementptr inbounds nuw i8, ptr %1, i64 16
  %36 = load ptr, ptr %35, align 8, !tbaa !13
  store ptr %36, ptr %34, align 8, !tbaa !13
  %37 = getelementptr inbounds nuw i8, ptr %0, i64 24
  %38 = getelementptr inbounds nuw i8, ptr %1, i64 24
  %39 = load ptr, ptr %38, align 8, !tbaa !39
  %40 = load ptr, ptr %39, align 8, !tbaa !11
  %41 = getelementptr inbounds nuw i8, ptr %40, i64 40
  %42 = load ptr, ptr %41, align 8
  %43 = invoke noundef ptr %42(ptr noundef nonnull align 8 dereferenceable(16) %39)
          to label %44 unwind label %71

44:                                               ; preds = %_ZN4cvc58internal8TypeNodeD2Ev.exit
  store ptr %43, ptr %37, align 8, !tbaa !39
  %45 = getelementptr inbounds nuw i8, ptr %0, i64 32
  %46 = getelementptr inbounds nuw i8, ptr %1, i64 32
  %47 = load i8, ptr %46, align 8, !tbaa !36, !range !48, !noundef !49
  store i8 %47, ptr %45, align 8, !tbaa !36
  %48 = getelementptr inbounds nuw i8, ptr %0, i64 40
  call void @llvm.memset.p0.i64(ptr noundef nonnull align 8 dereferenceable(24) %48, i8 0, i64 24, i1 false)
  %49 = getelementptr inbounds nuw i8, ptr %0, i64 64
  %50 = getelementptr inbounds nuw i8, ptr %1, i64 64
  %51 = load i32, ptr %50, align 8, !tbaa !50
  store i32 %51, ptr %49, align 8, !tbaa !50
  %52 = getelementptr inbounds nuw i8, ptr %0, i64 72
  %53 = getelementptr inbounds nuw i8, ptr %1, i64 72
  %54 = load ptr, ptr %53, align 8, !tbaa !38
  store ptr %54, ptr %52, align 8, !tbaa !38
  %55 = load i64, ptr %54, align 8
  %56 = lshr i64 %55, 40
  %57 = trunc nuw nsw i64 %56 to i32
  %58 = and i32 %57, 1048575
  %59 = icmp samesign ult i32 %58, 1048574
  br i1 %59, label %60, label %65, !prof !9

60:                                               ; preds = %44
  %61 = add i64 %55, 1099511627776
  %62 = and i64 %61, 1152920405095219200
  %63 = and i64 %55, -1152920405095219201
  %64 = or disjoint i64 %62, %63
  store i64 %64, ptr %54, align 8
  br label %_ZN4cvc58internal12NodeTemplateILb1EEC2ERKS2_.exit

65:                                               ; preds = %44
  %66 = icmp eq i32 %58, 1048574
  br i1 %66, label %67, label %_ZN4cvc58internal12NodeTemplateILb1EEC2ERKS2_.exit, !prof !10

67:                                               ; preds = %65
  %68 = or i64 %55, 1152920405095219200
  store i64 %68, ptr %54, align 8
  invoke void @_ZN4cvc58internal4expr9NodeValue20markRefCountMaxedOutEv(ptr noundef nonnull align 8 dereferenceable(24) %54)
          to label %_ZN4cvc58internal12NodeTemplateILb1EEC2ERKS2_.exit unwind label %73

_ZN4cvc58internal12NodeTemplateILb1EEC2ERKS2_.exit: ; preds = %65, %60, %67
  ret void

69:                                               ; preds = %_ZNK4cvc58internal6theory23TypeEnumeratorInterface7getTypeEv.exit
  %70 = landingpad { ptr, i32 }
          cleanup
  call void @_ZN4cvc58internal8TypeNodeD2Ev(ptr noundef nonnull align 8 dereferenceable(8) %3) #24
  br label %81

71:                                               ; preds = %_ZN4cvc58internal8TypeNodeD2Ev.exit
  %72 = landingpad { ptr, i32 }
          cleanup
  br label %_ZN4cvc58internal6theory14TypeEnumeratorD2Ev.exit

73:                                               ; preds = %67
  %74 = landingpad { ptr, i32 }
          cleanup
  call void @_ZNSt6vectorIN4cvc58internal12NodeTemplateILb1EEESaIS3_EED2Ev(ptr noundef nonnull align 8 dereferenceable(24) %48) #24
  %75 = load ptr, ptr %37, align 8, !tbaa !39
  %76 = icmp eq ptr %75, null
  br i1 %76, label %_ZN4cvc58internal6theory14TypeEnumeratorD2Ev.exit, label %77

77:                                               ; preds = %73
  %78 = load ptr, ptr %75, align 8, !tbaa !11
  %79 = getelementptr inbounds nuw i8, ptr %78, i64 8
  %80 = load ptr, ptr %79, align 8
  call void %80(ptr noundef nonnull align 8 dereferenceable(16) %75) #24
  br label %_ZN4cvc58internal6theory14TypeEnumeratorD2Ev.exit

_ZN4cvc58internal6theory14TypeEnumeratorD2Ev.exit: ; preds = %77, %73, %71
  %.pn = phi { ptr, i32 } [ %72, %71 ], [ %74, %73 ], [ %74, %77 ]
  call void @_ZN4cvc58internal6theory23TypeEnumeratorInterfaceD2Ev(ptr noundef nonnull align 8 dereferenceable(16) %0) #24
  br label %81

81:                                               ; preds = %_ZN4cvc58internal6theory14TypeEnumeratorD2Ev.exit, %69
  %.pn.pn = phi { ptr, i32 } [ %.pn, %_ZN4cvc58internal6theory14TypeEnumeratorD2Ev.exit ], [ %70, %69 ]
  resume { ptr, i32 } %.pn.pn
}